#include <math.h>
#include <stdio.h>
#include <stdlib.h>
#include <string.h>

int main(){
   int i,j,l,k,o=0;
   char a[10000],b[10000]={' '};
   gets(a);
   l=strlen(a);
   b[o++]=a[0];
   for(i=1;i<l;i++){
        if(a[i]!=' '||a[i]==' '&&a[i-1]!=' ') b[o++]=a[i];
        }
    for(i=0;i<o;i++) printf("%c",b[i]);
    
    
    scanf("%d",&i);
    return 0;
    }
